; Function Attrs: mustprogress uwtable
define hidden void @_ZN7datalog24external_relation_plugin12mk_filter_fnEP4sortP3appR7obj_refI9func_decl11ast_managerE(ptr nocapture noundef nonnull readonly align 8 dereferenceable(48) %this, ptr noundef %s, ptr noundef %condition, ptr nocapture noundef nonnull align 8 dereferenceable(16) %f) local_unnamed_addr #3 align 2 personality ptr @__gxx_personality_v0 {
entry:
  %s.addr = alloca ptr, align 8
  %param = alloca %class.parameter, align 8
  store ptr %s, ptr %s.addr, align 8
  %m_manager.i = getelementptr inbounds i8, ptr %this, i64 24
  %0 = load ptr, ptr %m_manager.i, align 8
  %call.i = tail call noundef nonnull align 8 dereferenceable(976) ptr @_ZN7datalog32get_ast_manager_from_rel_managerERKNS_16relation_managerE(ptr noundef nonnull align 1 %0)
  %m_ext.i = getelementptr inbounds i8, ptr %this, i64 40
  %1 = load ptr, ptr %m_ext.i, align 8
  %vtable.i = load ptr, ptr %1, align 8
  %vfn.i = getelementptr inbounds i8, ptr %vtable.i, i64 16
  %2 = load ptr, ptr %vfn.i, align 8
  %call.i1 = tail call noundef i32 %2(ptr noundef nonnull align 8 dereferenceable(8) %1)
  store ptr %condition, ptr %param, align 8
  %_M_index.i.i.i.i.i.i.i.i.i = getelementptr inbounds i8, ptr %param, i64 8
  store i8 1, ptr %_M_index.i.i.i.i.i.i.i.i.i, align 8
  %call3 = invoke noundef ptr @_ZN11ast_manager12mk_func_declEiijPK9parameterjPKP4sortS4_(ptr noundef nonnull align 8 dereferenceable(976) %call.i, i32 noundef %call.i1, i32 noundef 7, i32 noundef 1, ptr noundef nonnull %param, i32 noundef 1, ptr noundef nonnull %s.addr, ptr noundef null)
          to label %invoke.cont unwind label %lpad

invoke.cont:                                      ; preds = %entry
  %tobool.not.i = icmp eq ptr %call3, null
  br i1 %tobool.not.i, label %if.end.i, label %_ZN11ast_manager7inc_refEP3ast.exit.i

_ZN11ast_manager7inc_refEP3ast.exit.i:            ; preds = %invoke.cont
  %m_ref_count.i.i.i = getelementptr inbounds i8, ptr %call3, i64 8
  %3 = load i32, ptr %m_ref_count.i.i.i, align 4
  %inc.i.i.i = add i32 %3, 1
  store i32 %inc.i.i.i, ptr %m_ref_count.i.i.i, align 4
  br label %if.end.i

if.end.i:                                         ; preds = %_ZN11ast_manager7inc_refEP3ast.exit.i, %invoke.cont
  %4 = load ptr, ptr %f, align 8
  %tobool.not.i3.i = icmp eq ptr %4, null
  br i1 %tobool.not.i3.i, label %invoke.cont4, label %if.then.i.i.i

if.then.i.i.i:                                    ; preds = %if.end.i
  %m_manager.i.i = getelementptr inbounds i8, ptr %f, i64 8
  %5 = load ptr, ptr %m_manager.i.i, align 8
  %m_ref_count.i.i.i.i = getelementptr inbounds i8, ptr %4, i64 8
  %6 = load i32, ptr %m_ref_count.i.i.i.i, align 4
  %dec.i.i.i.i = add i32 %6, -1
  store i32 %dec.i.i.i.i, ptr %m_ref_count.i.i.i.i, align 4
  %cmp.i.i.i = icmp eq i32 %dec.i.i.i.i, 0
  br i1 %cmp.i.i.i, label %if.then2.i.i.i, label %invoke.cont4

if.then2.i.i.i:                                   ; preds = %if.then.i.i.i
  invoke void @_ZN11ast_manager11delete_nodeEP3ast(ptr noundef nonnull align 8 dereferenceable(976) %5, ptr noundef nonnull %4)
          to label %invoke.cont4 unwind label %lpad

invoke.cont4:                                     ; preds = %if.then.i.i.i, %if.end.i, %if.then2.i.i.i
  store ptr %call3, ptr %f, align 8
  call void @_ZN9parameterD1Ev(ptr noundef nonnull align 8 dereferenceable(16) %param) #17
  ret void

lpad:                                             ; preds = %if.then2.i.i.i, %entry
  %7 = landingpad { ptr, i32 }
          cleanup
  call void @_ZN9parameterD1Ev(ptr noundef nonnull align 8 dereferenceable(16) %param) #17
  resume { ptr, i32 } %7
}